; Function Attrs: nounwind uwtable
define dso_local ptr @xmmap_gently(ptr noundef %0, i64 noundef %1, i32 noundef %2, i32 noundef %3, i32 noundef %4, i64 noundef %5) local_unnamed_addr #1 {
  %7 = load i64, ptr @mmap_limit_check.limit, align 8, !tbaa !94
  %.not.i = icmp eq i64 %7, 0
  br i1 %.not.i, label %8, label %10

8:                                                ; preds = %6
  %9 = tail call i64 @git_env_ulong(ptr noundef nonnull @.str.74, i64 noundef 0) #27
  %.not2.i = icmp eq i64 %9, 0
  %spec.store.select.i = select i1 %.not2.i, i64 -1, i64 %9
  store i64 %spec.store.select.i, ptr @mmap_limit_check.limit, align 8
  br label %10

10:                                               ; preds = %8, %6
  %11 = phi i64 [ %spec.store.select.i, %8 ], [ %7, %6 ]
  %12 = icmp ugt i64 %1, %11
  br i1 %12, label %13, label %mmap_limit_check.exit

13:                                               ; preds = %10
  %14 = tail call fastcc ptr @_(ptr noundef nonnull @.str.75)
  %15 = load i64, ptr @mmap_limit_check.limit, align 8, !tbaa !94
  tail call void (ptr, ...) @die(ptr noundef %14, i64 noundef %1, i64 noundef %15) #26
  unreachable

mmap_limit_check.exit:                            ; preds = %10
  %16 = tail call ptr @mmap64(ptr noundef %0, i64 noundef %1, i32 noundef %2, i32 noundef %3, i32 noundef %4, i64 noundef %5) #27
  %17 = icmp ne ptr %16, inttoptr (i64 -1 to ptr)
  %18 = icmp ne i64 %1, 0
  %or.cond = or i1 %18, %17
  %spec.store.select = select i1 %or.cond, ptr %16, ptr null
  ret ptr %spec.store.select
}